; Function Attrs: mustprogress uwtable
define noundef i32 @_ZN6colvar11polar_theta4initERKNSt7__cxx1112basic_stringIcSt11char_traitsIcESaIcEEE(ptr noundef nonnull align 8 dereferenceable(1640) %0, ptr noundef nonnull align 8 dereferenceable(32) %1) unnamed_addr #2 align 2 {
  %3 = tail call noundef i32 @_ZN6colvar3cvc4initERKNSt7__cxx1112basic_stringIcSt11char_traitsIcESaIcEEE(ptr noundef nonnull align 8 dereferenceable(1608) %0, ptr noundef nonnull align 8 dereferenceable(32) %1)
  %4 = tail call noundef ptr @_ZN6colvar3cvc11parse_groupERKNSt7__cxx1112basic_stringIcSt11char_traitsIcESaIcEEEPKcb(ptr noundef nonnull align 8 dereferenceable(1608) %0, ptr noundef nonnull align 8 dereferenceable(32) %1, ptr noundef nonnull @.str.14, i1 noundef zeroext false)
  %5 = getelementptr inbounds nuw i8, ptr %0, i64 1608
  store ptr %4, ptr %5, align 8, !tbaa !96
  %6 = load ptr, ptr %0, align 8, !tbaa !85
  %7 = getelementptr inbounds nuw i8, ptr %6, i64 208
  %8 = load ptr, ptr %7, align 8
  %9 = tail call noundef i32 %8(ptr noundef nonnull align 8 dereferenceable(1608) %0, ptr noundef nonnull align 8 dereferenceable(32) %1)
  %10 = or i32 %9, %3
  ret i32 %10
}